target datalayout = "e-m:e-p270:32:32-p271:32:32-p272:64:64-i64:64-i128:128-f80:128-n8:16:32:64-S128"
target triple = "x86_64-pc-linux-gnu"

%struct.SDL_WaylandSeat = type { ptr, ptr, ptr, ptr, ptr, %struct.wl_list, i32, i32, %struct.anon, %struct.anon.1, %struct.anon.4, %struct.anon.5, %struct.anon.6 }
%struct.wl_list = type { ptr, ptr }
%struct.anon = type { ptr, ptr, ptr, ptr, ptr, %struct.SDL_WaylandKeyboardRepeat, i64, i16, i16, i32, i8, %struct.anon.0 }
%struct.SDL_WaylandKeyboardRepeat = type { i32, i32, i32, i8, i8, i32, i64, i64, i64, i32, [8 x i8] }
%struct.anon.0 = type { ptr, ptr, ptr, ptr, i32, i32, i32, i32, i32, i32, i32, i32, i32, i32, i32 }
%struct.anon.1 = type { ptr, ptr, ptr, ptr, ptr, ptr, ptr, ptr, i64, i32, i32, %struct.SDL_Point, i32, %struct.anon.2, %struct.anon.3 }
%struct.SDL_Point = type { i32, i32 }
%struct.anon.2 = type { i32, float, i32, float, i64, i32 }
%struct.anon.3 = type { ptr, ptr, ptr, i64, i64, i32 }
%struct.anon.4 = type { ptr, ptr, i64, %struct.wl_list }
%struct.anon.5 = type { ptr, %struct.SDL_Rect, i8, i8 }
%struct.SDL_Rect = type { i32, i32, i32, i32 }
%struct.anon.6 = type { ptr, %struct.wl_list }
%struct.SDL_WaylandTouchPoint = type { i64, i32, i32, ptr, %struct.wl_list }

@WAYLAND_wl_list_init = external global ptr, align 8
@WAYLAND_wl_proxy_marshal_flags = external global ptr, align 8
@WAYLAND_wl_proxy_get_version = external global ptr, align 8
@WAYLAND_wl_proxy_destroy = external global ptr, align 8

; Function Attrs: inlinehint nounwind uwtable
define internal void @wl_touch_destroy(ptr noundef %0) #2 {
  %2 = alloca ptr, align 8
  store ptr %0, ptr %2, align 8
  %3 = load ptr, ptr @WAYLAND_wl_proxy_destroy, align 8
  %4 = load ptr, ptr %2, align 8
  call void %3(ptr noundef %4)
  ret void
}

; Function Attrs: inlinehint nounwind uwtable
define internal void @wl_touch_release(ptr noundef %0) #2 {
  %2 = alloca ptr, align 8
  store ptr %0, ptr %2, align 8
  %3 = load ptr, ptr @WAYLAND_wl_proxy_marshal_flags, align 8
  %4 = load ptr, ptr %2, align 8
  %5 = load ptr, ptr @WAYLAND_wl_proxy_get_version, align 8
  %6 = load ptr, ptr %2, align 8
  %7 = call i32 %5(ptr noundef %6)
  %8 = call ptr (ptr, i32, ptr, i32, i32, ...) %3(ptr noundef %4, i32 noundef 0, ptr noundef null, i32 noundef %7, i32 noundef 1)
  ret void
}

; Function Attrs: inlinehint nounwind uwtable
define internal i32 @wl_touch_get_version(ptr noundef %0) #2 {
  %2 = alloca ptr, align 8
  store ptr %0, ptr %2, align 8
  %3 = load ptr, ptr @WAYLAND_wl_proxy_get_version, align 8
  %4 = load ptr, ptr %2, align 8
  %5 = call i32 %3(ptr noundef %4)
  ret i32 %5
}

; Function Attrs: inlinehint nounwind uwtable
define internal void @zwp_input_timestamps_v1_destroy(ptr noundef %0) #2 {
  %2 = alloca ptr, align 8
  store ptr %0, ptr %2, align 8
  %3 = load ptr, ptr @WAYLAND_wl_proxy_marshal_flags, align 8
  %4 = load ptr, ptr %2, align 8
  %5 = load ptr, ptr @WAYLAND_wl_proxy_get_version, align 8
  %6 = load ptr, ptr %2, align 8
  %7 = call i32 %5(ptr noundef %6)
  %8 = call ptr (ptr, i32, ptr, i32, i32, ...) %3(ptr noundef %4, i32 noundef 0, ptr noundef null, i32 noundef %7, i32 noundef 1)
  ret void
}

; Function Attrs: nounwind uwtable
define internal void @touch_handler_cancel(ptr noundef %0, ptr noundef %1) #0 {
  %3 = alloca ptr, align 8
  %4 = alloca ptr, align 8
  %5 = alloca ptr, align 8
  %6 = alloca ptr, align 8
  %7 = alloca ptr, align 8
  store ptr %0, ptr %3, align 8
  store ptr %1, ptr %4, align 8
  call void @llvm.lifetime.start.p0(i64 8, ptr %5) #10
  %8 = load ptr, ptr %3, align 8
  store ptr %8, ptr %5, align 8
  call void @llvm.lifetime.start.p0(i64 8, ptr %6) #10
  call void @llvm.lifetime.start.p0(i64 8, ptr %7) #10
  %9 = load ptr, ptr %5, align 8
  %10 = getelementptr inbounds nuw %struct.SDL_WaylandSeat, ptr %9, i32 0, i32 10
  %11 = getelementptr inbounds nuw %struct.anon.4, ptr %10, i32 0, i32 3
  %12 = getelementptr inbounds nuw %struct.wl_list, ptr %11, i32 0, i32 1
  %13 = load ptr, ptr %12, align 8
  %14 = getelementptr inbounds i8, ptr %13, i64 -24
  store ptr %14, ptr %6, align 8
  %15 = load ptr, ptr %6, align 8
  %16 = getelementptr inbounds nuw %struct.SDL_WaylandTouchPoint, ptr %15, i32 0, i32 4
  %17 = getelementptr inbounds nuw %struct.wl_list, ptr %16, i32 0, i32 1
  %18 = load ptr, ptr %17, align 8
  %19 = getelementptr inbounds i8, ptr %18, i64 -24
  store ptr %19, ptr %7, align 8
  br label %20

20:                                               ; preds = %30, %2
  %21 = load ptr, ptr %6, align 8
  %22 = getelementptr inbounds nuw %struct.SDL_WaylandTouchPoint, ptr %21, i32 0, i32 4
  %23 = load ptr, ptr %5, align 8
  %24 = getelementptr inbounds nuw %struct.SDL_WaylandSeat, ptr %23, i32 0, i32 10
  %25 = getelementptr inbounds nuw %struct.anon.4, ptr %24, i32 0, i32 3
  %26 = icmp ne ptr %22, %25
  br i1 %26, label %27, label %37

27:                                               ; preds = %20
  %28 = load ptr, ptr %5, align 8
  %29 = load ptr, ptr %6, align 8
  call void @Wayland_SeatCancelTouch(ptr noundef %28, ptr noundef %29)
  br label %30

30:                                               ; preds = %27
  %31 = load ptr, ptr %7, align 8
  store ptr %31, ptr %6, align 8
  %32 = load ptr, ptr %6, align 8
  %33 = getelementptr inbounds nuw %struct.SDL_WaylandTouchPoint, ptr %32, i32 0, i32 4
  %34 = getelementptr inbounds nuw %struct.wl_list, ptr %33, i32 0, i32 1
  %35 = load ptr, ptr %34, align 8
  %36 = getelementptr inbounds i8, ptr %35, i64 -24
  store ptr %36, ptr %7, align 8
  br label %20, !llvm.loop !30

37:                                               ; preds = %20
  call void @llvm.lifetime.end.p0(i64 8, ptr %7) #10
  call void @llvm.lifetime.end.p0(i64 8, ptr %6) #10
  call void @llvm.lifetime.end.p0(i64 8, ptr %5) #10
  ret void
}

; Function Attrs: nounwind uwtable
define internal void @Wayland_SeatDestroyTouch(ptr noundef %0) #0 {
  %2 = alloca ptr, align 8
  store ptr %0, ptr %2, align 8
  %3 = load ptr, ptr %2, align 8
  %4 = getelementptr inbounds nuw %struct.SDL_WaylandSeat, ptr %3, i32 0, i32 10
  %5 = getelementptr inbounds nuw %struct.anon.4, ptr %4, i32 0, i32 0
  %6 = load ptr, ptr %5, align 8
  %7 = icmp ne ptr %6, null
  br i1 %7, label %8, label %14

8:                                                ; preds = %1
  %9 = load ptr, ptr %2, align 8
  %10 = load ptr, ptr %2, align 8
  %11 = getelementptr inbounds nuw %struct.SDL_WaylandSeat, ptr %10, i32 0, i32 10
  %12 = getelementptr inbounds nuw %struct.anon.4, ptr %11, i32 0, i32 0
  %13 = load ptr, ptr %12, align 8
  call void @touch_handler_cancel(ptr noundef %9, ptr noundef %13)
  br label %14

14:                                               ; preds = %8, %1
  %15 = load ptr, ptr %2, align 8
  %16 = getelementptr inbounds nuw %struct.SDL_WaylandSeat, ptr %15, i32 0, i32 10
  %17 = getelementptr inbounds nuw %struct.anon.4, ptr %16, i32 0, i32 0
  %18 = load ptr, ptr %17, align 8
  %19 = ptrtoint ptr %18 to i64
  call void @SDL_DelTouch(i64 noundef %19)
  %20 = load ptr, ptr %2, align 8
  %21 = getelementptr inbounds nuw %struct.SDL_WaylandSeat, ptr %20, i32 0, i32 10
  %22 = getelementptr inbounds nuw %struct.anon.4, ptr %21, i32 0, i32 1
  %23 = load ptr, ptr %22, align 8
  %24 = icmp ne ptr %23, null
  br i1 %24, label %25, label %30

25:                                               ; preds = %14
  %26 = load ptr, ptr %2, align 8
  %27 = getelementptr inbounds nuw %struct.SDL_WaylandSeat, ptr %26, i32 0, i32 10
  %28 = getelementptr inbounds nuw %struct.anon.4, ptr %27, i32 0, i32 1
  %29 = load ptr, ptr %28, align 8
  call void @zwp_input_timestamps_v1_destroy(ptr noundef %29)
  br label %30

30:                                               ; preds = %25, %14
  %31 = load ptr, ptr %2, align 8
  %32 = getelementptr inbounds nuw %struct.SDL_WaylandSeat, ptr %31, i32 0, i32 10
  %33 = getelementptr inbounds nuw %struct.anon.4, ptr %32, i32 0, i32 0
  %34 = load ptr, ptr %33, align 8
  %35 = icmp ne ptr %34, null
  br i1 %35, label %36, label %54

36:                                               ; preds = %30
  %37 = load ptr, ptr %2, align 8
  %38 = getelementptr inbounds nuw %struct.SDL_WaylandSeat, ptr %37, i32 0, i32 10
  %39 = getelementptr inbounds nuw %struct.anon.4, ptr %38, i32 0, i32 0
  %40 = load ptr, ptr %39, align 8
  %41 = call i32 @wl_touch_get_version(ptr noundef %40)
  %42 = icmp uge i32 %41, 3
  br i1 %42, label %43, label %48

43:                                               ; preds = %36
  %44 = load ptr, ptr %2, align 8
  %45 = getelementptr inbounds nuw %struct.SDL_WaylandSeat, ptr %44, i32 0, i32 10
  %46 = getelementptr inbounds nuw %struct.anon.4, ptr %45, i32 0, i32 0
  %47 = load ptr, ptr %46, align 8
  call void @wl_touch_release(ptr noundef %47)
  br label %53

48:                                               ; preds = %36
  %49 = load ptr, ptr %2, align 8
  %50 = getelementptr inbounds nuw %struct.SDL_WaylandSeat, ptr %49, i32 0, i32 10
  %51 = getelementptr inbounds nuw %struct.anon.4, ptr %50, i32 0, i32 0
  %52 = load ptr, ptr %51, align 8
  call void @wl_touch_destroy(ptr noundef %52)
  br label %53

53:                                               ; preds = %48, %43
  br label %54

54:                                               ; preds = %53, %30
  %55 = load ptr, ptr %2, align 8
  %56 = getelementptr inbounds nuw %struct.SDL_WaylandSeat, ptr %55, i32 0, i32 10
  call void @llvm.memset.p0.i64(ptr align 8 %56, i8 0, i64 40, i1 false)
  %57 = load ptr, ptr @WAYLAND_wl_list_init, align 8
  %58 = load ptr, ptr %2, align 8
  %59 = getelementptr inbounds nuw %struct.SDL_WaylandSeat, ptr %58, i32 0, i32 10
  %60 = getelementptr inbounds nuw %struct.anon.4, ptr %59, i32 0, i32 3
  call void %57(ptr noundef %60)
  ret void
}