; Function Attrs: nounwind uwtable
define internal fastcc void @Wayland_SeatDestroyTouch(ptr noundef %0) unnamed_addr #0 {
  %2 = getelementptr inbounds nuw i8, ptr %0, i64 448
  %3 = load ptr, ptr %2, align 8
  %.not = icmp eq ptr %3, null
  br i1 %.not, label %touch_handler_cancel.exit, label %4

4:                                                ; preds = %1
  %5 = getelementptr inbounds nuw i8, ptr %0, i64 472
  %6 = getelementptr inbounds nuw i8, ptr %0, i64 480
  %7 = load ptr, ptr %6, align 8
  %.not12.i = icmp eq ptr %7, %5
  br i1 %.not12.i, label %touch_handler_cancel.exit, label %.lr.ph.i

.lr.ph.i:                                         ; preds = %4, %.lr.ph.i
  %.pn1013.i = phi ptr [ %.pn.i, %.lr.ph.i ], [ %7, %4 ]
  %.pn.in.i = getelementptr inbounds nuw i8, ptr %.pn1013.i, i64 8
  %.09.i = getelementptr inbounds i8, ptr %.pn1013.i, i64 -24
  %.pn.i = load ptr, ptr %.pn.in.i, align 8
  tail call fastcc void @Wayland_SeatCancelTouch(ptr noundef nonnull readonly %0, ptr noundef nonnull %.09.i)
  %.not.i = icmp eq ptr %.pn.i, %5
  br i1 %.not.i, label %touch_handler_cancel.exit.loopexit, label %.lr.ph.i, !llvm.loop !22

touch_handler_cancel.exit.loopexit:               ; preds = %.lr.ph.i
  %.pre = load ptr, ptr %2, align 8
  br label %touch_handler_cancel.exit

touch_handler_cancel.exit:                        ; preds = %touch_handler_cancel.exit.loopexit, %4, %1
  %8 = phi ptr [ %.pre, %touch_handler_cancel.exit.loopexit ], [ %3, %4 ], [ null, %1 ]
  %9 = ptrtoint ptr %8 to i64
  tail call void @SDL_DelTouch(i64 noundef %9) #12
  %10 = getelementptr inbounds nuw i8, ptr %0, i64 456
  %11 = load ptr, ptr %10, align 8
  %.not14 = icmp eq ptr %11, null
  br i1 %.not14, label %17, label %12

12:                                               ; preds = %touch_handler_cancel.exit
  %13 = load ptr, ptr @WAYLAND_wl_proxy_marshal_flags, align 8
  %14 = load ptr, ptr @WAYLAND_wl_proxy_get_version, align 8
  %15 = tail call i32 %14(ptr noundef nonnull %11) #12
  %16 = tail call ptr (ptr, i32, ptr, i32, i32, ...) %13(ptr noundef nonnull %11, i32 noundef 0, ptr noundef null, i32 noundef %15, i32 noundef 1) #12
  br label %17

17:                                               ; preds = %12, %touch_handler_cancel.exit
  %18 = load ptr, ptr %2, align 8
  %.not15 = icmp eq ptr %18, null
  br i1 %.not15, label %31, label %19

19:                                               ; preds = %17
  %20 = load ptr, ptr @WAYLAND_wl_proxy_get_version, align 8
  %21 = tail call i32 %20(ptr noundef nonnull %18) #12
  %22 = icmp ugt i32 %21, 2
  %23 = load ptr, ptr %2, align 8
  br i1 %22, label %24, label %29

24:                                               ; preds = %19
  %25 = load ptr, ptr @WAYLAND_wl_proxy_marshal_flags, align 8
  %26 = load ptr, ptr @WAYLAND_wl_proxy_get_version, align 8
  %27 = tail call i32 %26(ptr noundef %23) #12
  %28 = tail call ptr (ptr, i32, ptr, i32, i32, ...) %25(ptr noundef %23, i32 noundef 0, ptr noundef null, i32 noundef %27, i32 noundef 1) #12
  br label %31

29:                                               ; preds = %19
  %30 = load ptr, ptr @WAYLAND_wl_proxy_destroy, align 8
  tail call void %30(ptr noundef %23) #12
  br label %31

31:                                               ; preds = %24, %29, %17
  tail call void @llvm.memset.p0.i64(ptr noundef nonnull align 8 dereferenceable(40) %2, i8 0, i64 40, i1 false)
  %32 = load ptr, ptr @WAYLAND_wl_list_init, align 8
  %33 = getelementptr inbounds nuw i8, ptr %0, i64 472
  tail call void %32(ptr noundef nonnull %33) #12
  ret void
}